target datalayout = "e-m:e-p270:32:32-p271:32:32-p272:64:64-i64:64-i128:128-f80:128-n8:16:32:64-S128"
target triple = "x86_64-pc-linux-gnu"

%"class.logging::LogMessageVoidify" = type { i8 }
%"class.logging::LogMessage" = type <{ i32, [4 x i8], %"class.std::__cxx11::basic_ostringstream", i64, ptr, i32, [4 x i8] }>
%"class.std::__cxx11::basic_ostringstream" = type { %"class.std::basic_ostream.base", %"class.std::__cxx11::basic_stringbuf", %"class.std::basic_ios" }
%"class.std::basic_ostream.base" = type { ptr }
%"class.std::__cxx11::basic_stringbuf" = type { %"class.std::basic_streambuf", i32, %"class.std::__cxx11::basic_string" }
%"class.std::basic_streambuf" = type { ptr, ptr, ptr, ptr, ptr, ptr, ptr, %"class.std::locale" }
%"class.std::locale" = type { ptr }
%"class.std::__cxx11::basic_string" = type { %"struct.std::__cxx11::basic_string<char>::_Alloc_hider", i64, %union.anon }
%"struct.std::__cxx11::basic_string<char>::_Alloc_hider" = type { ptr }
%union.anon = type { i64, [8 x i8] }
%"class.std::basic_ios" = type { %"class.std::ios_base", ptr, i8, i8, ptr, ptr, ptr, ptr }
%"class.std::ios_base" = type { ptr, i64, i64, i32, i32, i32, ptr, %"struct.std::ios_base::_Words", [8 x %"struct.std::ios_base::_Words"], i32, ptr, %"class.std::locale" }
%"struct.std::ios_base::_Words" = type { ptr, i64 }

@.str = private unnamed_addr constant [123 x i8] c"generated/home/dtcxzyw/WorkSpace/Projects/compilers/llvm-opt-benchmark/bench/libquic/libquic/src/net/spdy/spdy_protocol.cc\00", align 1
@.str.8 = private unnamed_addr constant [27 x i8] c"Invalid RST_STREAM status \00", align 1

; Function Attrs: inlinehint mustprogress nounwind uwtable
define linkonce_odr noundef i32 @_ZStorSt12_Ios_IostateS_(i32 noundef %0, i32 noundef %1) #9 comdat {
  %3 = alloca i32, align 4
  %4 = alloca i32, align 4
  store i32 %0, ptr %3, align 4, !tbaa !204
  store i32 %1, ptr %4, align 4, !tbaa !204
  %5 = load i32, ptr %3, align 4, !tbaa !204
  %6 = load i32, ptr %4, align 4, !tbaa !204
  %7 = or i32 %5, %6
  ret i32 %7
}

; Function Attrs: mustprogress nounwind uwtable
define available_externally noundef i32 @_ZNKSt9basic_iosIcSt11char_traitsIcEE7rdstateEv(ptr noundef nonnull align 8 dereferenceable(264) %0) #3 align 2 {
  %2 = alloca ptr, align 8
  store ptr %0, ptr %2, align 8, !tbaa !202
  %3 = load ptr, ptr %2, align 8
  %4 = getelementptr inbounds nuw %"class.std::ios_base", ptr %3, i32 0, i32 5
  %5 = load i32, ptr %4, align 8, !tbaa !206
  ret i32 %5
}

; Function Attrs: mustprogress nounwind uwtable
define linkonce_odr noundef i64 @_ZNSt11char_traitsIcE6lengthEPKc(ptr noundef %0) #3 comdat align 2 {
  %2 = alloca ptr, align 8
  store ptr %0, ptr %2, align 8, !tbaa !11
  %3 = load ptr, ptr %2, align 8, !tbaa !11
  %4 = call i64 @strlen(ptr noundef %3) #15
  ret i64 %4
}

; Function Attrs: mustprogress uwtable
define available_externally void @_ZNSt9basic_iosIcSt11char_traitsIcEE8setstateESt12_Ios_Iostate(ptr noundef nonnull align 8 dereferenceable(264) %0, i32 noundef %1) #0 align 2 {
  %3 = alloca ptr, align 8
  %4 = alloca i32, align 4
  store ptr %0, ptr %3, align 8, !tbaa !202
  store i32 %1, ptr %4, align 4, !tbaa !204
  %5 = load ptr, ptr %3, align 8
  %6 = call noundef i32 @_ZNKSt9basic_iosIcSt11char_traitsIcEE7rdstateEv(ptr noundef nonnull align 8 dereferenceable(264) %5)
  %7 = load i32, ptr %4, align 4, !tbaa !204
  %8 = call noundef i32 @_ZStorSt12_Ios_IostateS_(i32 noundef %6, i32 noundef %7)
  call void @_ZNSt9basic_iosIcSt11char_traitsIcEE5clearESt12_Ios_Iostate(ptr noundef nonnull align 8 dereferenceable(264) %5, i32 noundef %8)
  ret void
}

; Function Attrs: mustprogress nounwind uwtable
define linkonce_odr void @_ZN7logging17LogMessageVoidifyanERSo(ptr noundef nonnull align 1 dereferenceable(1) %0, ptr noundef nonnull align 8 dereferenceable(8) %1) #3 comdat align 2 {
  %3 = alloca ptr, align 8
  %4 = alloca ptr, align 8
  store ptr %0, ptr %3, align 8, !tbaa !6
  store ptr %1, ptr %4, align 8, !tbaa !9
  ret void
}

; Function Attrs: inlinehint mustprogress uwtable
define available_externally noundef nonnull align 8 dereferenceable(8) ptr @_ZStlsISt11char_traitsIcEERSt13basic_ostreamIcT_ES5_PKc(ptr noundef nonnull align 8 dereferenceable(8) %0, ptr noundef %1) #4 {
  %3 = alloca ptr, align 8
  %4 = alloca ptr, align 8
  store ptr %0, ptr %3, align 8, !tbaa !9
  store ptr %1, ptr %4, align 8, !tbaa !11
  %5 = load ptr, ptr %4, align 8, !tbaa !11
  %6 = icmp ne ptr %5, null
  br i1 %6, label %13, label %7

7:                                                ; preds = %2
  %8 = load ptr, ptr %3, align 8, !tbaa !9
  %9 = load ptr, ptr %8, align 8, !tbaa !13
  %10 = getelementptr i8, ptr %9, i64 -24
  %11 = load i64, ptr %10, align 8
  %12 = getelementptr inbounds i8, ptr %8, i64 %11
  call void @_ZNSt9basic_iosIcSt11char_traitsIcEE8setstateESt12_Ios_Iostate(ptr noundef nonnull align 8 dereferenceable(264) %12, i32 noundef 1)
  br label %19

13:                                               ; preds = %2
  %14 = load ptr, ptr %3, align 8, !tbaa !9
  %15 = load ptr, ptr %4, align 8, !tbaa !11
  %16 = load ptr, ptr %4, align 8, !tbaa !11
  %17 = call noundef i64 @_ZNSt11char_traitsIcE6lengthEPKc(ptr noundef %16)
  %18 = call noundef nonnull align 8 dereferenceable(8) ptr @_ZSt16__ostream_insertIcSt11char_traitsIcEERSt13basic_ostreamIT_T0_ES6_PKS3_l(ptr noundef nonnull align 8 dereferenceable(8) %14, ptr noundef %15, i64 noundef %17)
  br label %19

19:                                               ; preds = %13, %7
  %20 = load ptr, ptr %3, align 8, !tbaa !9
  ret ptr %20
}

; Function Attrs: mustprogress nounwind uwtable
define linkonce_odr noundef nonnull align 8 dereferenceable(8) ptr @_ZN7logging10LogMessage6streamEv(ptr noundef nonnull align 8 dereferenceable(404) %0) #3 comdat align 2 {
  %2 = alloca ptr, align 8
  store ptr %0, ptr %2, align 8, !tbaa !15
  %3 = load ptr, ptr %2, align 8
  %4 = getelementptr inbounds nuw %"class.logging::LogMessage", ptr %3, i32 0, i32 2
  ret ptr %4
}

; Function Attrs: mustprogress nounwind uwtable
define linkonce_odr void @_ZN7logging17LogMessageVoidifyC2Ev(ptr noundef nonnull align 1 dereferenceable(1) %0) unnamed_addr #3 comdat align 2 {
  %2 = alloca ptr, align 8
  store ptr %0, ptr %2, align 8, !tbaa !6
  ret void
}

; Function Attrs: mustprogress uwtable
define noundef i32 @_ZN3net13SpdyConstants20ParseRstStreamStatusENS_16SpdyMajorVersionEi(i32 noundef %0, i32 noundef %1) #0 align 2 personality ptr @__gxx_personality_v0 {
  %3 = alloca i32, align 4
  %4 = alloca i32, align 4
  %5 = alloca i32, align 4
  %6 = alloca %"class.logging::LogMessageVoidify", align 1
  %7 = alloca %"class.logging::LogMessage", align 8
  %8 = alloca i1, align 1
  %9 = alloca i1, align 1
  %10 = alloca ptr, align 8
  %11 = alloca i32, align 4
  store i32 %0, ptr %4, align 4, !tbaa !21
  store i32 %1, ptr %5, align 4, !tbaa !17
  %12 = load i32, ptr %4, align 4, !tbaa !21
  switch i32 %12, label %40 [
    i32 1, label %13
    i32 2, label %26
  ]

13:                                               ; preds = %2
  %14 = load i32, ptr %5, align 4, !tbaa !17
  switch i32 %14, label %25 [
    i32 1, label %15
    i32 2, label %16
    i32 3, label %17
    i32 4, label %18
    i32 5, label %19
    i32 6, label %20
    i32 7, label %21
    i32 8, label %22
    i32 9, label %23
    i32 11, label %24
  ]

15:                                               ; preds = %13
  store i32 1, ptr %3, align 4
  br label %69

16:                                               ; preds = %13
  store i32 2, ptr %3, align 4
  br label %69

17:                                               ; preds = %13
  store i32 3, ptr %3, align 4
  br label %69

18:                                               ; preds = %13
  store i32 4, ptr %3, align 4
  br label %69

19:                                               ; preds = %13
  store i32 5, ptr %3, align 4
  br label %69

20:                                               ; preds = %13
  store i32 6, ptr %3, align 4
  br label %69

21:                                               ; preds = %13
  store i32 7, ptr %3, align 4
  br label %69

22:                                               ; preds = %13
  store i32 8, ptr %3, align 4
  br label %69

23:                                               ; preds = %13
  store i32 9, ptr %3, align 4
  br label %69

24:                                               ; preds = %13
  store i32 11, ptr %3, align 4
  br label %69

25:                                               ; preds = %13
  br label %40

26:                                               ; preds = %2
  %27 = load i32, ptr %5, align 4, !tbaa !17
  switch i32 %27, label %39 [
    i32 1, label %28
    i32 2, label %29
    i32 3, label %30
    i32 5, label %31
    i32 6, label %32
    i32 7, label %33
    i32 8, label %34
    i32 10, label %35
    i32 11, label %36
    i32 12, label %37
    i32 13, label %38
  ]

28:                                               ; preds = %26
  store i32 1, ptr %3, align 4
  br label %69

29:                                               ; preds = %26
  store i32 6, ptr %3, align 4
  br label %69

30:                                               ; preds = %26
  store i32 7, ptr %3, align 4
  br label %69

31:                                               ; preds = %26
  store i32 2, ptr %3, align 4
  br label %69

32:                                               ; preds = %26
  store i32 11, ptr %3, align 4
  br label %69

33:                                               ; preds = %26
  store i32 3, ptr %3, align 4
  br label %69

34:                                               ; preds = %26
  store i32 5, ptr %3, align 4
  br label %69

35:                                               ; preds = %26
  store i32 13, ptr %3, align 4
  br label %69

36:                                               ; preds = %26
  store i32 14, ptr %3, align 4
  br label %69

37:                                               ; preds = %26
  store i32 15, ptr %3, align 4
  br label %69

38:                                               ; preds = %26
  store i32 16, ptr %3, align 4
  br label %69

39:                                               ; preds = %26
  br label %40

40:                                               ; preds = %2, %39, %25
  %41 = call noundef zeroext i1 @_ZN7logging22ShouldCreateLogMessageEi(i32 noundef 2)
  call void @llvm.lifetime.start.p0(i64 1, ptr %6) #15
  store i1 false, ptr %8, align 1
  store i1 false, ptr %9, align 1
  br i1 %41, label %43, label %42

42:                                               ; preds = %40
  br label %52

43:                                               ; preds = %40
  call void @_ZN7logging17LogMessageVoidifyC2Ev(ptr noundef nonnull align 1 dereferenceable(1) %6)
  call void @llvm.lifetime.start.p0(i64 408, ptr %7) #15
  store i1 true, ptr %8, align 1
  call void @_ZN7logging10LogMessageC1EPKcii(ptr noundef nonnull align 8 dereferenceable(404) %7, ptr noundef @.str, i32 noundef 476, i32 noundef 2)
  store i1 true, ptr %9, align 1
  %44 = invoke noundef nonnull align 8 dereferenceable(8) ptr @_ZN7logging10LogMessage6streamEv(ptr noundef nonnull align 8 dereferenceable(404) %7)
          to label %45 unwind label %59

45:                                               ; preds = %43
  %46 = invoke noundef nonnull align 8 dereferenceable(8) ptr @_ZStlsISt11char_traitsIcEERSt13basic_ostreamIcT_ES5_PKc(ptr noundef nonnull align 8 dereferenceable(8) %44, ptr noundef @.str.8)
          to label %47 unwind label %59

47:                                               ; preds = %45
  %48 = load i32, ptr %5, align 4, !tbaa !17
  %49 = invoke noundef nonnull align 8 dereferenceable(8) ptr @_ZNSolsEi(ptr noundef nonnull align 8 dereferenceable(8) %46, i32 noundef %48)
          to label %50 unwind label %59

50:                                               ; preds = %47
  invoke void @_ZN7logging17LogMessageVoidifyanERSo(ptr noundef nonnull align 1 dereferenceable(1) %6, ptr noundef nonnull align 8 dereferenceable(8) %49)
          to label %51 unwind label %59

51:                                               ; preds = %50
  br label %52

52:                                               ; preds = %51, %42
  %53 = load i1, ptr %9, align 1
  br i1 %53, label %54, label %55

54:                                               ; preds = %52
  call void @_ZN7logging10LogMessageD1Ev(ptr noundef nonnull align 8 dereferenceable(404) %7) #15
  br label %55

55:                                               ; preds = %54, %52
  %56 = load i1, ptr %8, align 1
  br i1 %56, label %57, label %58

57:                                               ; preds = %55
  call void @llvm.lifetime.end.p0(i64 408, ptr %7) #15
  br label %58

58:                                               ; preds = %57, %55
  call void @llvm.lifetime.end.p0(i64 1, ptr %6) #15
  store i32 1, ptr %3, align 4
  br label %69

59:                                               ; preds = %50, %47, %45, %43
  %60 = landingpad { ptr, i32 }
          cleanup
  %61 = extractvalue { ptr, i32 } %60, 0
  store ptr %61, ptr %10, align 8
  %62 = extractvalue { ptr, i32 } %60, 1
  store i32 %62, ptr %11, align 4
  %63 = load i1, ptr %9, align 1
  br i1 %63, label %64, label %65

64:                                               ; preds = %59
  call void @_ZN7logging10LogMessageD1Ev(ptr noundef nonnull align 8 dereferenceable(404) %7) #15
  br label %65

65:                                               ; preds = %64, %59
  %66 = load i1, ptr %8, align 1
  br i1 %66, label %67, label %68

67:                                               ; preds = %65
  call void @llvm.lifetime.end.p0(i64 408, ptr %7) #15
  br label %68

68:                                               ; preds = %67, %65
  call void @llvm.lifetime.end.p0(i64 1, ptr %6) #15
  br label %71

69:                                               ; preds = %58, %38, %37, %36, %35, %34, %33, %32, %31, %30, %29, %28, %24, %23, %22, %21, %20, %19, %18, %17, %16, %15
  %70 = load i32, ptr %3, align 4
  ret i32 %70

71:                                               ; preds = %68
  %72 = load ptr, ptr %10, align 8
  %73 = load i32, ptr %11, align 4
  %74 = insertvalue { ptr, i32 } poison, ptr %72, 0
  %75 = insertvalue { ptr, i32 } %74, i32 %73, 1
  resume { ptr, i32 } %75
}