; Function Attrs: mustprogress uwtable
define noundef range(i32 1, 17) i32 @_ZN3net13SpdyConstants20ParseRstStreamStatusENS_16SpdyMajorVersionEi(i32 noundef %0, i32 noundef %1) local_unnamed_addr #0 align 2 personality ptr @__gxx_personality_v0 {
  %3 = alloca %"class.logging::LogMessage", align 8
  switch i32 %0, label %8 [
    i32 1, label %4
    i32 2, label %6
  ]

4:                                                ; preds = %2
  %switch.tableidx = add i32 %1, -1
  %5 = icmp ult i32 %switch.tableidx, 11
  br i1 %5, label %switch.hole_check, label %8

6:                                                ; preds = %2
  %switch.tableidx14 = add i32 %1, -1
  %7 = icmp ult i32 %switch.tableidx14, 13
  br i1 %7, label %switch.hole_check15, label %8

8:                                                ; preds = %switch.hole_check15, %6, %switch.hole_check, %4, %2
  %9 = tail call noundef zeroext i1 @_ZN7logging22ShouldCreateLogMessageEi(i32 noundef 2)
  br i1 %9, label %10, label %.critedge12

10:                                               ; preds = %8
  call void @llvm.lifetime.start.p0(i64 408, ptr nonnull %3) #22
  call void @_ZN7logging10LogMessageC1EPKcii(ptr noundef nonnull align 8 dereferenceable(404) %3, ptr noundef nonnull @.str, i32 noundef 476, i32 noundef 2)
  %11 = getelementptr inbounds nuw i8, ptr %3, i64 8
  %12 = invoke noundef nonnull align 8 dereferenceable(8) ptr @_ZSt16__ostream_insertIcSt11char_traitsIcEERSt13basic_ostreamIT_T0_ES6_PKS3_l(ptr noundef nonnull align 8 dereferenceable(8) %11, ptr noundef nonnull @.str.8, i64 noundef 26)
          to label %_ZStlsISt11char_traitsIcEERSt13basic_ostreamIcT_ES5_PKc.exit unwind label %14

_ZStlsISt11char_traitsIcEERSt13basic_ostreamIcT_ES5_PKc.exit: ; preds = %10
  %13 = invoke noundef nonnull align 8 dereferenceable(8) ptr @_ZNSolsEi(ptr noundef nonnull align 8 dereferenceable(8) %11, i32 noundef %1)
          to label %.critedge unwind label %14

.critedge:                                        ; preds = %_ZStlsISt11char_traitsIcEERSt13basic_ostreamIcT_ES5_PKc.exit
  call void @_ZN7logging10LogMessageD1Ev(ptr noundef nonnull align 8 dereferenceable(404) %3) #22
  call void @llvm.lifetime.end.p0(i64 408, ptr nonnull %3) #22
  br label %.critedge12

14:                                               ; preds = %10, %_ZStlsISt11char_traitsIcEERSt13basic_ostreamIcT_ES5_PKc.exit
  %15 = landingpad { ptr, i32 }
          cleanup
  call void @_ZN7logging10LogMessageD1Ev(ptr noundef nonnull align 8 dereferenceable(404) %3) #22
  call void @llvm.lifetime.end.p0(i64 408, ptr nonnull %3) #22
  resume { ptr, i32 } %15

switch.hole_check:                                ; preds = %4
  %switch.maskindex = trunc nuw i32 %switch.tableidx to i16
  %switch.shifted = lshr i16 1535, %switch.maskindex
  %switch.lobit = trunc i16 %switch.shifted to i1
  br i1 %switch.lobit, label %switch.lookup, label %8

switch.lookup:                                    ; preds = %switch.hole_check
  %16 = zext nneg i32 %switch.tableidx to i64
  %switch.gep = getelementptr inbounds nuw [11 x i32], ptr @switch.table._ZN3net13SpdyConstants20ParseRstStreamStatusENS_16SpdyMajorVersionEi, i64 0, i64 %16
  %switch.load = load i32, ptr %switch.gep, align 4
  br label %.critedge12

switch.hole_check15:                              ; preds = %6
  %switch.maskindex17 = trunc nuw i32 %switch.tableidx14 to i16
  %switch.shifted18 = lshr i16 7927, %switch.maskindex17
  %switch.lobit19 = trunc i16 %switch.shifted18 to i1
  br i1 %switch.lobit19, label %switch.lookup16, label %8

switch.lookup16:                                  ; preds = %switch.hole_check15
  %17 = zext nneg i32 %switch.tableidx14 to i64
  %switch.gep20 = getelementptr inbounds nuw [13 x i32], ptr @switch.table._ZN3net13SpdyConstants20ParseRstStreamStatusENS_16SpdyMajorVersionEi.4, i64 0, i64 %17
  %switch.load21 = load i32, ptr %switch.gep20, align 4
  br label %.critedge12

.critedge12:                                      ; preds = %switch.lookup16, %switch.lookup, %.critedge, %8
  %.0 = phi i32 [ 1, %8 ], [ 1, %.critedge ], [ %switch.load, %switch.lookup ], [ %switch.load21, %switch.lookup16 ]
  ret i32 %.0
}